target datalayout = "e-m:e-p270:32:32-p271:32:32-p272:64:64-i64:64-i128:128-f80:128-n8:16:32:64-S128"
target triple = "x86_64-pc-linux-gnu"

%struct.ImVec2 = type { float, float }
%struct.ImGuiStyle = type { float, float, %struct.ImVec2, float, float, %struct.ImVec2, %struct.ImVec2, i32, float, float, float, float, %struct.ImVec2, float, float, %struct.ImVec2, %struct.ImVec2, %struct.ImVec2, %struct.ImVec2, float, float, float, float, float, float, float, float, float, float, float, float, float, %struct.ImVec2, i32, %struct.ImVec2, %struct.ImVec2, float, %struct.ImVec2, %struct.ImVec2, %struct.ImVec2, %struct.ImVec2, float, i8, i8, i8, float, float, [56 x %struct.ImVec4], float, float, float, i32, i32 }
%struct.ImVec4 = type { float, float, float, float }
%struct.ImGuiIO = type { i32, i32, %struct.ImVec2, float, float, ptr, ptr, ptr, ptr, float, i8, ptr, %struct.ImVec2, i8, i8, i8, i8, i8, i8, i8, i8, i8, i8, float, float, float, float, float, float, i8, i8, i8, i8, i8, i8, i8, i8, i8, i8, ptr, ptr, ptr, ptr, ptr, i8, i8, i8, i8, i8, i8, i8, float, i32, i32, i32, i32, %struct.ImVec2, ptr, %struct.ImVec2, [5 x i8], float, float, i32, i8, i8, i8, i8, i32, [154 x %struct.ImGuiKeyData], i8, %struct.ImVec2, [5 x %struct.ImVec2], [5 x double], [5 x i8], [5 x i8], [5 x i16], [5 x i16], [5 x i8], [5 x i8], [5 x i8], i8, i8, [5 x float], [5 x float], [5 x float], float, i8, i8, i8, i8, i16, %struct.ImVector }
%struct.ImGuiKeyData = type { i8, float, float, float }
%struct.ImVector = type { i32, i32, ptr }
%struct.ImGuiContext = type { i8, i8, %struct.ImGuiIO, %struct.ImGuiPlatformIO, %struct.ImGuiStyle, ptr, float, float, float, float, %struct.ImDrawListSharedData, double, i32, i32, i32, i8, i8, i8, i8, i8, ptr, [16 x i8], %struct.ImVector.1, %struct.ImVector.1, i32, i32, %struct.ImVector.2, %struct.ImVector.2, %struct.ImVector.2, %struct.ImVector.3, %struct.ImGuiStorage, i32, %struct.ImVec2, i32, ptr, ptr, ptr, ptr, ptr, ptr, %struct.ImVec2, i32, i32, float, %struct.ImVec2, %struct.ImVec2, i32, i32, i32, i32, i32, float, float, i8, i8, i8, i32, i32, float, i8, i8, i8, i8, i8, i8, i8, i8, %struct.ImVec2, ptr, i32, i32, i8, i8, ptr, i32, float, double, double, double, %struct.ImBitArray, [154 x %struct.ImGuiKeyOwnerData], %struct.ImGuiKeyRoutingTable, i32, i8, i32, i32, i32, i32, %struct.ImGuiNextItemData, %struct.ImGuiLastItemData, %struct.ImGuiNextWindowData, i8, i32, %struct.ImVector.6, %struct.ImVector.7, %struct.ImVector.8, %struct.ImVector.9, %struct.ImVector.10, %struct.ImVector.11, %struct.ImVector.12, %struct.ImVector.12, %struct.ImVector.13, %struct.ImVector.14, ptr, i32, i32, i32, i32, i32, i32, i32, %struct.ImVector.9, i32, float, i32, i32, i32, i64, i8, i8, i8, i8, i8, i8, i8, %struct.ImGuiNavItemData, i8, i8, i8, i32, i32, i32, i32, i32, i32, %struct.ImRect, %struct.ImRect, i32, i32, i32, %struct.ImGuiNavItemData, %struct.ImGuiNavItemData, %struct.ImGuiNavItemData, %struct.ImGuiNavItemData, i32, i32, i32, i32, i8, i8, i32, i32, ptr, ptr, ptr, float, float, i8, i32, %struct.ImVec2, %struct.ImVec2, float, i8, i8, i8, i32, i32, i32, [4 x i8], %struct.ImGuiPayload, %struct.ImRect, %struct.ImRect, i32, i32, float, i32, i32, i32, i32, %struct.ImVector.15, [16 x i8], i32, %struct.ImVector.16, ptr, i32, i32, %struct.ImVector.17, %struct.ImPool, %struct.ImVector.19, %struct.ImVector.20, ptr, %struct.ImPool.21, %struct.ImVector.23, %struct.ImVector.24, %struct.ImGuiBoxSelectState, ptr, i32, %struct.ImVector.25, %struct.ImPool.26, i32, i32, float, float, i32, i32, i32, float, %struct.ImVec2, %struct.ImGuiInputTextState, %struct.ImGuiInputTextDeactivatedState, %struct.ImFont, i32, %struct.ImGuiDataTypeStorage, i32, i32, i32, i32, i32, float, float, i32, %struct.ImVec4, %struct.ImGuiComboPreviewData, %struct.ImRect, i8, i16, float, float, float, i8, i8, float, float, float, i16, i16, i16, ptr, %struct.ImVector.28, %struct.ImVector.30, %struct.ImGuiTypingSelectState, %struct.ImGuiPlatformImeData, %struct.ImGuiPlatformImeData, i8, float, %struct.ImGuiTextBuffer, %struct.ImVector.31, %struct.ImChunkStream, %struct.ImChunkStream.32, %struct.ImVector.33, i32, [10 x ptr], i8, i32, ptr, %struct.ImGuiTextBuffer, ptr, ptr, float, i8, i32, i32, i32, ptr, ptr, %struct.ImVec2, i8, i32, %struct.ImGuiErrorRecoveryState, ptr, i32, i32, %struct.ImGuiTextBuffer, %struct.ImGuiTextIndex, i32, i32, i8, i8, i8, i32, i8, i8, i8, i32, float, %struct.ImVec4, %struct.ImGuiMetricsConfig, %struct.ImGuiIDStackTool, %struct.ImGuiDebugAllocInfo, [60 x float], i32, i32, float, i32, i32, i32, %struct.ImVector.28, [64 x i8] }
%struct.ImGuiPlatformIO = type <{ ptr, ptr, ptr, ptr, ptr, ptr, ptr, i16, [6 x i8] }>
%struct.ImDrawListSharedData = type { %struct.ImVec2, ptr, float, float, float, float, %struct.ImVec4, i32, %struct.ImVector.0, [48 x %struct.ImVec2], float, [64 x i8], ptr }
%struct.ImVector.0 = type { i32, i32, ptr }
%struct.ImVector.1 = type { i32, i32, ptr }
%struct.ImVector.2 = type { i32, i32, ptr }
%struct.ImVector.3 = type { i32, i32, ptr }
%struct.ImGuiStorage = type { %struct.ImVector.4 }
%struct.ImVector.4 = type { i32, i32, ptr }
%struct.ImBitArray = type { [5 x i32] }
%struct.ImGuiKeyOwnerData = type <{ i32, i32, i8, i8, [2 x i8] }>
%struct.ImGuiKeyRoutingTable = type { [154 x i16], %struct.ImVector.5, %struct.ImVector.5 }
%struct.ImVector.5 = type { i32, i32, ptr }
%struct.ImGuiNextItemData = type <{ i32, i32, i32, [4 x i8], i64, float, i32, i32, i8, i8, %struct.ImGuiDataTypeStorage, [2 x i8], i32, [4 x i8] }>
%struct.ImGuiLastItemData = type { i32, i32, i32, %struct.ImRect, %struct.ImRect, %struct.ImRect, %struct.ImRect, i32 }
%struct.ImGuiNextWindowData = type { i32, i32, i32, i32, %struct.ImVec2, %struct.ImVec2, %struct.ImVec2, %struct.ImVec2, %struct.ImVec2, i32, i8, %struct.ImRect, ptr, ptr, float, %struct.ImVec2, i32 }
%struct.ImVector.6 = type { i32, i32, ptr }
%struct.ImVector.7 = type { i32, i32, ptr }
%struct.ImVector.8 = type { i32, i32, ptr }
%struct.ImVector.10 = type { i32, i32, ptr }
%struct.ImVector.11 = type { i32, i32, ptr }
%struct.ImVector.12 = type { i32, i32, ptr }
%struct.ImVector.13 = type { i32, i32, ptr }
%struct.ImVector.14 = type { i32, i32, ptr }
%struct.ImVector.9 = type { i32, i32, ptr }
%struct.ImGuiNavItemData = type { ptr, i32, i32, %struct.ImRect, i32, float, float, float, i64 }
%struct.ImGuiPayload = type <{ ptr, i32, i32, i32, i32, [33 x i8], i8, i8, [5 x i8] }>
%struct.ImVector.15 = type { i32, i32, ptr }
%struct.ImVector.16 = type { i32, i32, ptr }
%struct.ImVector.17 = type { i32, i32, ptr }
%struct.ImPool = type { %struct.ImVector.18, %struct.ImGuiStorage, i32, i32 }
%struct.ImVector.18 = type { i32, i32, ptr }
%struct.ImVector.19 = type { i32, i32, ptr }
%struct.ImVector.20 = type { i32, i32, ptr }
%struct.ImPool.21 = type { %struct.ImVector.22, %struct.ImGuiStorage, i32, i32 }
%struct.ImVector.22 = type { i32, i32, ptr }
%struct.ImVector.23 = type { i32, i32, ptr }
%struct.ImVector.24 = type { i32, i32, ptr }
%struct.ImGuiBoxSelectState = type <{ i32, i8, i8, i8, i8, i8, i16, i8, %struct.ImVec2, %struct.ImVec2, %struct.ImVec2, [4 x i8], ptr, i8, [3 x i8], %struct.ImRect, %struct.ImRect, %struct.ImRect, [4 x i8] }>
%struct.ImVector.25 = type { i32, i32, ptr }
%struct.ImPool.26 = type { %struct.ImVector.27, %struct.ImGuiStorage, i32, i32 }
%struct.ImVector.27 = type { i32, i32, ptr }
%struct.ImGuiInputTextState = type <{ ptr, ptr, i32, i32, %struct.ImVector.28, %struct.ImVector.28, %struct.ImVector.28, i32, %struct.ImVec2, float, i8, i8, i8, i8, i32, i8, [3 x i8], i32, i32, [4 x i8] }>
%struct.ImGuiInputTextDeactivatedState = type { i32, %struct.ImVector.28 }
%struct.ImFont = type <{ %struct.ImVector.19, float, float, %struct.ImVector, %struct.ImVector.29, ptr, ptr, ptr, i16, i16, i16, i16, float, float, i8, [3 x i8], float, float, float, i32, [2 x i8], [2 x i8] }>
%struct.ImVector.29 = type { i32, i32, ptr }
%struct.ImGuiDataTypeStorage = type { [8 x i8] }
%struct.ImGuiComboPreviewData = type { %struct.ImRect, %struct.ImVec2, %struct.ImVec2, %struct.ImVec2, float, i32 }
%struct.ImRect = type { %struct.ImVec2, %struct.ImVec2 }
%struct.ImVector.30 = type { i32, i32, ptr }
%struct.ImGuiTypingSelectState = type <{ %struct.ImGuiTypingSelectRequest, [64 x i8], i32, i32, float, i8, [3 x i8] }>
%struct.ImGuiTypingSelectRequest = type { i32, i32, ptr, i8, i8, i8 }
%struct.ImGuiPlatformImeData = type { i8, %struct.ImVec2, float }
%struct.ImVector.31 = type { i32, i32, ptr }
%struct.ImChunkStream = type { %struct.ImVector.28 }
%struct.ImChunkStream.32 = type { %struct.ImVector.28 }
%struct.ImVector.33 = type { i32, i32, ptr }
%struct.ImGuiErrorRecoveryState = type { i16, i16, i16, i16, i16, i16, i16, i16, i16, i16, i16 }
%struct.ImGuiTextBuffer = type { %struct.ImVector.28 }
%struct.ImGuiTextIndex = type <{ %struct.ImVector.10, i32, [4 x i8] }>
%struct.ImGuiMetricsConfig = type { i8, i8, i8, i8, i8, i8, i8, i8, i8, i32, i32, i32, i32 }
%struct.ImGuiIDStackTool = type { i32, i32, i32, %struct.ImVector.34, i8, float }
%struct.ImVector.34 = type { i32, i32, ptr }
%struct.ImGuiDebugAllocInfo = type { i32, i32, i16, [6 x %struct.ImGuiDebugAllocEntry] }
%struct.ImGuiDebugAllocEntry = type { i32, i16, i16 }
%struct.ImVector.28 = type { i32, i32, ptr }
%struct.ImGuiWindow = type <{ ptr, ptr, i32, i32, i32, [4 x i8], ptr, %struct.ImVec2, %struct.ImVec2, %struct.ImVec2, %struct.ImVec2, %struct.ImVec2, %struct.ImVec2, %struct.ImVec2, float, float, float, float, float, float, float, float, float, float, i32, i32, i32, i32, %struct.ImVec2, %struct.ImVec2, %struct.ImVec2, %struct.ImVec2, %struct.ImVec2, %struct.ImVec2, i8, i8, i8, i8, i8, i8, i8, i8, i8, i8, i8, i8, i8, i8, i8, i8, i16, i16, i16, i16, i16, i8, i8, i8, [3 x i8], i32, i8, i8, i8, i8, i32, %struct.ImVec2, %struct.ImVec2, [4 x i8], %struct.ImVector.30, %struct.ImGuiWindowTempData, %struct.ImRect, %struct.ImRect, %struct.ImRect, %struct.ImRect, %struct.ImRect, %struct.ImRect, %struct.ImRect, %struct.ImVec2ih, %struct.ImVec2ih, i32, float, float, [4 x i8], %struct.ImGuiStorage, %struct.ImVector.37, float, i32, ptr, %struct.ImDrawList, ptr, ptr, ptr, ptr, ptr, ptr, ptr, ptr, [2 x i32], [2 x %struct.ImRect], [2 x %struct.ImVec2], i32, i32, i32, i8, [3 x i8] }>
%struct.ImGuiWindowTempData = type { %struct.ImVec2, %struct.ImVec2, %struct.ImVec2, %struct.ImVec2, %struct.ImVec2, %struct.ImVec2, %struct.ImVec2, float, float, i8, i8, %struct.ImVec1, %struct.ImVec1, %struct.ImVec1, %struct.ImVec2, i32, i16, i16, i8, i8, i8, i8, %struct.ImVec2, %struct.ImGuiMenuColumns, i32, i32, %struct.ImVector.2, ptr, ptr, i32, i32, i32, i32, float, float, %struct.ImVector.19, %struct.ImVector.19 }
%struct.ImVec1 = type { float }
%struct.ImGuiMenuColumns = type <{ i32, i32, i16, i16, i16, i16, i16, [4 x i16], [2 x i8] }>
%struct.ImVec2ih = type { i16, i16 }
%struct.ImVector.37 = type { i32, i32, ptr }
%struct.ImDrawList = type { %struct.ImVector.38, %struct.ImVector, %struct.ImVector.39, i32, i32, ptr, ptr, ptr, %struct.ImVector.0, %struct.ImDrawCmdHeader, %struct.ImDrawListSplitter, %struct.ImVector.40, %struct.ImVector.41, float, ptr }
%struct.ImVector.38 = type { i32, i32, ptr }
%struct.ImVector.39 = type { i32, i32, ptr }
%struct.ImDrawCmdHeader = type <{ %struct.ImVec4, ptr, i32, [4 x i8] }>
%struct.ImDrawListSplitter = type { i32, i32, %struct.ImVector.20 }
%struct.ImVector.40 = type { i32, i32, ptr }
%struct.ImVector.41 = type { i32, i32, ptr }

@GImGui = dso_local global ptr null, align 8

; Function Attrs: inlinehint mustprogress nounwind uwtable
define linkonce_odr dso_local noundef nonnull align 8 dereferenceable(8) ptr @_ZN8ImVectorIP11ImGuiWindowEixEi(ptr noundef nonnull align 8 dereferenceable(16) %0, i32 noundef %1) #7 comdat align 2 {
  %3 = alloca ptr, align 8
  %4 = alloca i32, align 4
  store ptr %0, ptr %3, align 8, !tbaa !784
  store i32 %1, ptr %4, align 4, !tbaa !117
  %5 = load ptr, ptr %3, align 8
  %6 = getelementptr inbounds nuw %struct.ImVector.2, ptr %5, i32 0, i32 2
  %7 = load ptr, ptr %6, align 8, !tbaa !788
  %8 = load i32, ptr %4, align 4, !tbaa !117
  %9 = sext i32 %8 to i64
  %10 = getelementptr inbounds ptr, ptr %7, i64 %9
  ret ptr %10
}

; Function Attrs: mustprogress nounwind uwtable
define internal noundef i32 @_ZN5ImGuiL20FindWindowFocusIndexEP11ImGuiWindow(ptr noundef %0) #1 {
  %2 = alloca ptr, align 8
  %3 = alloca ptr, align 8
  %4 = alloca i32, align 4
  store ptr %0, ptr %2, align 8, !tbaa !412
  call void @llvm.lifetime.start.p0(i64 8, ptr %3) #16
  %5 = load ptr, ptr @GImGui, align 8, !tbaa !133
  store ptr %5, ptr %3, align 8, !tbaa !133
  call void @llvm.lifetime.start.p0(i64 4, ptr %4) #16
  %6 = load ptr, ptr %2, align 8, !tbaa !412
  %7 = getelementptr inbounds nuw %struct.ImGuiWindow, ptr %6, i32 0, i32 54
  %8 = load i16, ptr %7, align 8, !tbaa !1367
  %9 = sext i16 %8 to i32
  store i32 %9, ptr %4, align 4, !tbaa !117
  %10 = load i32, ptr %4, align 4, !tbaa !117
  call void @llvm.lifetime.end.p0(i64 4, ptr %4) #16
  call void @llvm.lifetime.end.p0(i64 8, ptr %3) #16
  ret i32 %10
}

; Function Attrs: mustprogress uwtable
define dso_local void @_ZN5ImGui26FocusTopMostWindowUnderOneEP11ImGuiWindowS1_P13ImGuiViewporti(ptr noundef %0, ptr noundef %1, ptr noundef %2, i32 noundef %3) #0 {
  %5 = alloca ptr, align 8
  %6 = alloca ptr, align 8
  %7 = alloca ptr, align 8
  %8 = alloca i32, align 4
  %9 = alloca ptr, align 8
  %10 = alloca i32, align 4
  %11 = alloca i32, align 4
  %12 = alloca i32, align 4
  %13 = alloca i32, align 4
  %14 = alloca ptr, align 8
  store ptr %0, ptr %5, align 8, !tbaa !412
  store ptr %1, ptr %6, align 8, !tbaa !412
  store ptr %2, ptr %7, align 8, !tbaa !583
  store i32 %3, ptr %8, align 4, !tbaa !117
  call void @llvm.lifetime.start.p0(i64 8, ptr %9) #16
  %15 = load ptr, ptr @GImGui, align 8, !tbaa !133
  store ptr %15, ptr %9, align 8, !tbaa !133
  call void @llvm.lifetime.start.p0(i64 4, ptr %10) #16
  %16 = load ptr, ptr %9, align 8, !tbaa !133
  %17 = getelementptr inbounds nuw %struct.ImGuiContext, ptr %16, i32 0, i32 27
  %18 = getelementptr inbounds nuw %struct.ImVector.2, ptr %17, i32 0, i32 0
  %19 = load i32, ptr %18, align 8, !tbaa !1171
  %20 = sub nsw i32 %19, 1
  store i32 %20, ptr %10, align 4, !tbaa !117
  %21 = load ptr, ptr %5, align 8, !tbaa !412
  %22 = icmp ne ptr %21, null
  br i1 %22, label %23, label %39

23:                                               ; preds = %4
  call void @llvm.lifetime.start.p0(i64 4, ptr %11) #16
  store i32 -1, ptr %11, align 4, !tbaa !117
  br label %24

24:                                               ; preds = %30, %23
  %25 = load ptr, ptr %5, align 8, !tbaa !412
  %26 = getelementptr inbounds nuw %struct.ImGuiWindow, ptr %25, i32 0, i32 3
  %27 = load i32, ptr %26, align 4, !tbaa !954
  %28 = and i32 %27, 16777216
  %29 = icmp ne i32 %28, 0
  br i1 %29, label %30, label %34

30:                                               ; preds = %24
  %31 = load ptr, ptr %5, align 8, !tbaa !412
  %32 = getelementptr inbounds nuw %struct.ImGuiWindow, ptr %31, i32 0, i32 89
  %33 = load ptr, ptr %32, align 8, !tbaa !1172
  store ptr %33, ptr %5, align 8, !tbaa !412
  store i32 0, ptr %11, align 4, !tbaa !117
  br label %24, !llvm.loop !1173

34:                                               ; preds = %24
  %35 = load ptr, ptr %5, align 8, !tbaa !412
  %36 = call noundef i32 @_ZN5ImGuiL20FindWindowFocusIndexEP11ImGuiWindow(ptr noundef %35)
  %37 = load i32, ptr %11, align 4, !tbaa !117
  %38 = add nsw i32 %36, %37
  store i32 %38, ptr %10, align 4, !tbaa !117
  call void @llvm.lifetime.end.p0(i64 4, ptr %11) #16
  br label %39

39:                                               ; preds = %34, %4
  call void @llvm.lifetime.start.p0(i64 4, ptr %12) #16
  %40 = load i32, ptr %10, align 4, !tbaa !117
  store i32 %40, ptr %12, align 4, !tbaa !117
  br label %41

41:                                               ; preds = %73, %39
  %42 = load i32, ptr %12, align 4, !tbaa !117
  %43 = icmp sge i32 %42, 0
  br i1 %43, label %45, label %44

44:                                               ; preds = %41
  store i32 4, ptr %13, align 4
  br label %76

45:                                               ; preds = %41
  call void @llvm.lifetime.start.p0(i64 8, ptr %14) #16
  %46 = load ptr, ptr %9, align 8, !tbaa !133
  %47 = getelementptr inbounds nuw %struct.ImGuiContext, ptr %46, i32 0, i32 27
  %48 = load i32, ptr %12, align 4, !tbaa !117
  %49 = call noundef nonnull align 8 dereferenceable(8) ptr @_ZN8ImVectorIP11ImGuiWindowEixEi(ptr noundef nonnull align 8 dereferenceable(16) %47, i32 noundef %48)
  %50 = load ptr, ptr %49, align 8, !tbaa !412
  store ptr %50, ptr %14, align 8, !tbaa !412
  %51 = load ptr, ptr %14, align 8, !tbaa !412
  %52 = load ptr, ptr %6, align 8, !tbaa !412
  %53 = icmp eq ptr %51, %52
  br i1 %53, label %59, label %54

54:                                               ; preds = %45
  %55 = load ptr, ptr %14, align 8, !tbaa !412
  %56 = getelementptr inbounds nuw %struct.ImGuiWindow, ptr %55, i32 0, i32 37
  %57 = load i8, ptr %56, align 1, !tbaa !512, !range !134, !noundef !135
  %58 = trunc i8 %57 to i1
  br i1 %58, label %60, label %59

59:                                               ; preds = %54, %45
  store i32 6, ptr %13, align 4
  br label %70

60:                                               ; preds = %54
  %61 = load ptr, ptr %14, align 8, !tbaa !412
  %62 = getelementptr inbounds nuw %struct.ImGuiWindow, ptr %61, i32 0, i32 3
  %63 = load i32, ptr %62, align 4, !tbaa !954
  %64 = and i32 %63, 66048
  %65 = icmp ne i32 %64, 66048
  br i1 %65, label %66, label %69

66:                                               ; preds = %60
  %67 = load ptr, ptr %14, align 8, !tbaa !412
  %68 = load i32, ptr %8, align 4, !tbaa !117
  call void @_ZN5ImGui11FocusWindowEP11ImGuiWindowi(ptr noundef %67, i32 noundef %68)
  store i32 1, ptr %13, align 4
  br label %70

69:                                               ; preds = %60
  store i32 0, ptr %13, align 4
  br label %70

70:                                               ; preds = %69, %66, %59
  call void @llvm.lifetime.end.p0(i64 8, ptr %14) #16
  %71 = load i32, ptr %13, align 4
  switch i32 %71, label %76 [
    i32 0, label %72
    i32 6, label %73
  ]

72:                                               ; preds = %70
  br label %73

73:                                               ; preds = %72, %70
  %74 = load i32, ptr %12, align 4, !tbaa !117
  %75 = add nsw i32 %74, -1
  store i32 %75, ptr %12, align 4, !tbaa !117
  br label %41, !llvm.loop !1174

76:                                               ; preds = %70, %44
  call void @llvm.lifetime.end.p0(i64 4, ptr %12) #16
  %77 = load i32, ptr %13, align 4
  switch i32 %77, label %80 [
    i32 4, label %78
  ]

78:                                               ; preds = %76
  %79 = load i32, ptr %8, align 4, !tbaa !117
  call void @_ZN5ImGui11FocusWindowEP11ImGuiWindowi(ptr noundef null, i32 noundef %79)
  store i32 0, ptr %13, align 4
  br label %80

80:                                               ; preds = %78, %76
  call void @llvm.lifetime.end.p0(i64 4, ptr %10) #16
  call void @llvm.lifetime.end.p0(i64 8, ptr %9) #16
  %81 = load i32, ptr %13, align 4
  switch i32 %81, label %83 [
    i32 0, label %82
    i32 1, label %82
  ]

82:                                               ; preds = %80, %80
  ret void

83:                                               ; preds = %80
  unreachable
}