; Function Attrs: mustprogress uwtable
define dso_local void @_ZN5ImGui26FocusTopMostWindowUnderOneEP11ImGuiWindowS1_P13ImGuiViewporti(ptr noundef readonly captures(address_is_null) %0, ptr noundef readnone captures(address) %1, ptr noundef readnone captures(none) %2, i32 noundef %3) local_unnamed_addr #0 {
  %5 = load ptr, ptr @GImGui, align 8, !tbaa !211
  %6 = getelementptr inbounds nuw i8, ptr %5, i64 4848
  %7 = load i32, ptr %6, align 8, !tbaa !930
  %8 = add nsw i32 %7, -1
  %.not = icmp eq ptr %0, null
  br i1 %.not, label %20, label %.preheader

.preheader:                                       ; preds = %4
  %9 = getelementptr inbounds nuw i8, ptr %0, i64 20
  %10 = load i32, ptr %9, align 4, !tbaa !681
  %11 = and i32 %10, 16777216
  %.not2528 = icmp eq i32 %11, 0
  br i1 %.not2528, label %._crit_edge, label %.lr.ph

.lr.ph:                                           ; preds = %.preheader, %.lr.ph
  %.029 = phi ptr [ %13, %.lr.ph ], [ %0, %.preheader ]
  %12 = getelementptr inbounds nuw i8, ptr %.029, i64 896
  %13 = load ptr, ptr %12, align 8, !tbaa !878
  %14 = getelementptr inbounds nuw i8, ptr %13, i64 20
  %15 = load i32, ptr %14, align 4, !tbaa !681
  %16 = and i32 %15, 16777216
  %.not25 = icmp eq i32 %16, 0
  br i1 %.not25, label %._crit_edge, label %.lr.ph, !llvm.loop !1033

._crit_edge:                                      ; preds = %.lr.ph, %.preheader
  %.021.lcssa = phi i32 [ -1, %.preheader ], [ 0, %.lr.ph ]
  %.0.lcssa = phi ptr [ %0, %.preheader ], [ %13, %.lr.ph ]
  %17 = getelementptr i8, ptr %.0.lcssa, i64 224
  %.0.val = load i16, ptr %17, align 8, !tbaa !821
  %18 = sext i16 %.0.val to i32
  %19 = add nsw i32 %.021.lcssa, %18
  br label %20

20:                                               ; preds = %._crit_edge, %4
  %.022 = phi i32 [ %19, %._crit_edge ], [ %8, %4 ]
  %21 = icmp slt i32 %.022, 0
  br i1 %21, label %.critedge, label %.lr.ph33

.lr.ph33:                                         ; preds = %20
  %22 = getelementptr inbounds nuw i8, ptr %5, i64 4856
  %23 = load ptr, ptr %22, align 8, !tbaa !524
  %24 = zext nneg i32 %.022 to i64
  br label %25

25:                                               ; preds = %.lr.ph33, %37
  %indvars.iv = phi i64 [ %24, %.lr.ph33 ], [ %indvars.iv.next, %37 ]
  %26 = getelementptr inbounds nuw ptr, ptr %23, i64 %indvars.iv
  %27 = load ptr, ptr %26, align 8, !tbaa !666
  %28 = icmp eq ptr %27, %1
  br i1 %28, label %37, label %29

29:                                               ; preds = %25
  %30 = getelementptr inbounds nuw i8, ptr %27, i64 203
  %31 = load i8, ptr %30, align 1, !tbaa !431, !range !92, !noundef !93
  %32 = trunc nuw i8 %31 to i1
  br i1 %32, label %33, label %37

33:                                               ; preds = %29
  %34 = getelementptr inbounds nuw i8, ptr %27, i64 20
  %35 = load i32, ptr %34, align 4, !tbaa !681
  %36 = and i32 %35, 66048
  %.not26 = icmp eq i32 %36, 66048
  br i1 %.not26, label %37, label %.critedge

37:                                               ; preds = %29, %25, %33
  %indvars.iv.next = add nsw i64 %indvars.iv, -1
  %38 = icmp slt i64 %indvars.iv, 1
  br i1 %38, label %.critedge, label %25, !llvm.loop !997

.critedge:                                        ; preds = %37, %33, %20
  %.lcssa.sink = phi ptr [ null, %20 ], [ %27, %33 ], [ null, %37 ]
  tail call void @_ZN5ImGui11FocusWindowEP11ImGuiWindowi(ptr noundef %.lcssa.sink, i32 noundef %3)
  ret void
}